target datalayout = "e-m:e-p270:32:32-p271:32:32-p272:64:64-i64:64-i128:128-f80:128-n8:16:32:64-S128"
target triple = "x86_64-pc-linux-gnu"

%struct.mbedtls_ssl_cookie_ctx = type { %struct.mbedtls_md_context_t, i64 }
%struct.mbedtls_md_context_t = type { ptr, ptr, ptr }

; Function Attrs: nounwind uwtable
define hidden i32 @mbedtls_ssl_cookie_setup(ptr noundef %0, ptr noundef %1, ptr noundef %2) #0 {
  %4 = alloca i32, align 4
  %5 = alloca ptr, align 8
  %6 = alloca ptr, align 8
  %7 = alloca ptr, align 8
  %8 = alloca i32, align 4
  %9 = alloca [32 x i8], align 16
  %10 = alloca i32, align 4
  store ptr %0, ptr %5, align 8, !tbaa !3
  store ptr %1, ptr %6, align 8, !tbaa !14
  store ptr %2, ptr %7, align 8, !tbaa !14
  call void @llvm.lifetime.start.p0(i64 4, ptr %8) #8
  store i32 -110, ptr %8, align 4, !tbaa !15
  call void @llvm.lifetime.start.p0(i64 32, ptr %9) #8
  %11 = load ptr, ptr %6, align 8, !tbaa !14
  %12 = load ptr, ptr %7, align 8, !tbaa !14
  %13 = getelementptr inbounds [32 x i8], ptr %9, i64 0, i64 0
  %14 = call i32 %11(ptr noundef %12, ptr noundef %13, i64 noundef 32)
  store i32 %14, ptr %8, align 4, !tbaa !15
  %15 = icmp ne i32 %14, 0
  br i1 %15, label %16, label %18

16:                                               ; preds = %3
  %17 = load i32, ptr %8, align 4, !tbaa !15
  store i32 %17, ptr %4, align 4
  store i32 1, ptr %10, align 4
  br label %38

18:                                               ; preds = %3
  %19 = load ptr, ptr %5, align 8, !tbaa !3
  %20 = getelementptr inbounds nuw %struct.mbedtls_ssl_cookie_ctx, ptr %19, i32 0, i32 0
  %21 = call ptr @mbedtls_md_info_from_type(i32 noundef 9)
  %22 = call i32 @mbedtls_md_setup(ptr noundef %20, ptr noundef %21, i32 noundef 1)
  store i32 %22, ptr %8, align 4, !tbaa !15
  %23 = load i32, ptr %8, align 4, !tbaa !15
  %24 = icmp ne i32 %23, 0
  br i1 %24, label %25, label %27

25:                                               ; preds = %18
  %26 = load i32, ptr %8, align 4, !tbaa !15
  store i32 %26, ptr %4, align 4
  store i32 1, ptr %10, align 4
  br label %38

27:                                               ; preds = %18
  %28 = load ptr, ptr %5, align 8, !tbaa !3
  %29 = getelementptr inbounds nuw %struct.mbedtls_ssl_cookie_ctx, ptr %28, i32 0, i32 0
  %30 = getelementptr inbounds [32 x i8], ptr %9, i64 0, i64 0
  %31 = call i32 @mbedtls_md_hmac_starts(ptr noundef %29, ptr noundef %30, i64 noundef 32)
  store i32 %31, ptr %8, align 4, !tbaa !15
  %32 = load i32, ptr %8, align 4, !tbaa !15
  %33 = icmp ne i32 %32, 0
  br i1 %33, label %34, label %36

34:                                               ; preds = %27
  %35 = load i32, ptr %8, align 4, !tbaa !15
  store i32 %35, ptr %4, align 4
  store i32 1, ptr %10, align 4
  br label %38

36:                                               ; preds = %27
  %37 = getelementptr inbounds [32 x i8], ptr %9, i64 0, i64 0
  call void @mbedtls_platform_zeroize(ptr noundef %37, i64 noundef 32)
  store i32 0, ptr %4, align 4
  store i32 1, ptr %10, align 4
  br label %38

38:                                               ; preds = %36, %34, %25, %16
  call void @llvm.lifetime.end.p0(i64 32, ptr %9) #8
  call void @llvm.lifetime.end.p0(i64 4, ptr %8) #8
  %39 = load i32, ptr %4, align 4
  ret i32 %39
}