; Function Attrs: nounwind uwtable
define hidden i32 @mbedtls_ssl_cookie_setup(ptr noundef %0, ptr noundef readonly captures(none) %1, ptr noundef %2) local_unnamed_addr #0 {
  %4 = alloca [32 x i8], align 16
  call void @llvm.lifetime.start.p0(i64 32, ptr nonnull %4) #7
  %5 = call i32 %1(ptr noundef %2, ptr noundef nonnull %4, i64 noundef 32) #7
  %.not = icmp eq i32 %5, 0
  br i1 %.not, label %6, label %12

6:                                                ; preds = %3
  %7 = call ptr @mbedtls_md_info_from_type(i32 noundef 9) #7
  %8 = call i32 @mbedtls_md_setup(ptr noundef %0, ptr noundef %7, i32 noundef 1) #7
  %.not12 = icmp eq i32 %8, 0
  br i1 %.not12, label %9, label %12

9:                                                ; preds = %6
  %10 = call i32 @mbedtls_md_hmac_starts(ptr noundef %0, ptr noundef nonnull %4, i64 noundef 32) #7
  %.not13 = icmp eq i32 %10, 0
  br i1 %.not13, label %11, label %12

11:                                               ; preds = %9
  call void @mbedtls_platform_zeroize(ptr noundef nonnull %4, i64 noundef 32) #7
  br label %12

12:                                               ; preds = %9, %6, %3, %11
  %.0 = phi i32 [ 0, %11 ], [ %5, %3 ], [ %8, %6 ], [ %10, %9 ]
  call void @llvm.lifetime.end.p0(i64 32, ptr nonnull %4) #7
  ret i32 %.0
}